#include <math.h>
#include <stdio.h>
#include <stdlib.h>
#include <string.h>

int main(){
char h[1000];
int a,b=0,c=1000,i1,i2,j1,j2,i,len;
gets(h);
len = strlen(h);
int j=-1;
for(i=0;i<len + 1;i++){
	if((h[i]==' ')||(h[i]==',')||(h[i]=='\0')) {
			a=i-j-1;
			if (a > 0) {
        if(a>b){
			b=a;i1=i;j1=j;
		}
		if(a<c){
			c=a;i2=i;j2=j;
		}
			}
		j=i;
		}
	}
	for(i=j1+1;i<i1;i++){
		printf("%c",h[i]);
	}
	printf("\n");
	for(i=j2+1;i<i2;i++){
		printf("%c",h[i]);
	}
	printf("\n");
	return 0;
}
